target datalayout = "e-m:e-p270:32:32-p271:32:32-p272:64:64-i64:64-i128:128-f80:128-n8:16:32:64-S128"
target triple = "x86_64-pc-linux-gnu"

%struct.ossl_ml_kem_key_st = type { ptr, ptr, ptr, ptr, ptr, ptr, ptr, ptr, ptr, ptr, ptr, ptr, ptr, i32, i32, [64 x i8], ptr }
%struct.ml_kem_gen_ctx_st = type { ptr, ptr, i32, i32, [64 x i8], ptr }

@.str = private unnamed_addr constant [19 x i8] c"ml-kem.retain_seed\00", align 1
@.str.1 = private unnamed_addr constant [19 x i8] c"ml-kem.prefer_seed\00", align 1

; Function Attrs: nounwind uwtable
define internal ptr @ml_kem_new(ptr noundef %0, ptr noundef %1, i32 noundef %2) #0 {
  %4 = alloca ptr, align 8
  %5 = alloca ptr, align 8
  %6 = alloca ptr, align 8
  %7 = alloca i32, align 4
  %8 = alloca ptr, align 8
  %9 = alloca i32, align 4
  store ptr %0, ptr %5, align 8, !tbaa !52
  store ptr %1, ptr %6, align 8, !tbaa !24
  store i32 %2, ptr %7, align 4, !tbaa !25
  call void @llvm.lifetime.start.p0(i64 8, ptr %8) #7
  %10 = call i32 @ossl_prov_is_running()
  %11 = icmp ne i32 %10, 0
  br i1 %11, label %13, label %12

12:                                               ; preds = %3
  store ptr null, ptr %4, align 8
  store i32 1, ptr %9, align 4
  br label %31

13:                                               ; preds = %3
  %14 = load ptr, ptr %5, align 8, !tbaa !52
  %15 = call ptr @ossl_prov_ctx_get0_libctx(ptr noundef %14)
  %16 = load ptr, ptr %6, align 8, !tbaa !24
  %17 = load i32, ptr %7, align 4, !tbaa !25
  %18 = call ptr @ossl_ml_kem_key_new(ptr noundef %15, ptr noundef %16, i32 noundef %17)
  store ptr %18, ptr %8, align 8, !tbaa !9
  %19 = icmp ne ptr %18, null
  br i1 %19, label %20, label %29

20:                                               ; preds = %13
  %21 = load ptr, ptr %5, align 8, !tbaa !52
  %22 = call i32 @ossl_prov_ctx_get_bool_param(ptr noundef %21, ptr noundef @.str, i32 noundef 1)
  %23 = load ptr, ptr %8, align 8, !tbaa !9
  %24 = getelementptr inbounds nuw %struct.ossl_ml_kem_key_st, ptr %23, i32 0, i32 14
  store i32 %22, ptr %24, align 4, !tbaa !53
  %25 = load ptr, ptr %5, align 8, !tbaa !52
  %26 = call i32 @ossl_prov_ctx_get_bool_param(ptr noundef %25, ptr noundef @.str.1, i32 noundef 1)
  %27 = load ptr, ptr %8, align 8, !tbaa !9
  %28 = getelementptr inbounds nuw %struct.ossl_ml_kem_key_st, ptr %27, i32 0, i32 13
  store i32 %26, ptr %28, align 8, !tbaa !49
  br label %29

29:                                               ; preds = %20, %13
  %30 = load ptr, ptr %8, align 8, !tbaa !9
  store ptr %30, ptr %4, align 8
  store i32 1, ptr %9, align 4
  br label %31

31:                                               ; preds = %29, %12
  call void @llvm.lifetime.end.p0(i64 8, ptr %8) #7
  %32 = load ptr, ptr %4, align 8
  ret ptr %32
}

; Function Attrs: nounwind uwtable
define internal ptr @ml_kem_gen(ptr noundef %0, ptr noundef %1, ptr noundef %2) #0 {
  %4 = alloca ptr, align 8
  %5 = alloca ptr, align 8
  %6 = alloca ptr, align 8
  %7 = alloca ptr, align 8
  %8 = alloca ptr, align 8
  %9 = alloca ptr, align 8
  %10 = alloca ptr, align 8
  %11 = alloca ptr, align 8
  %12 = alloca i32, align 4
  %13 = alloca i32, align 4
  store ptr %0, ptr %5, align 8, !tbaa !3
  store ptr %1, ptr %6, align 8, !tbaa !3
  store ptr %2, ptr %7, align 8, !tbaa !3
  call void @llvm.lifetime.start.p0(i64 8, ptr %8) #7
  %14 = load ptr, ptr %5, align 8, !tbaa !3
  store ptr %14, ptr %8, align 8, !tbaa !38
  call void @llvm.lifetime.start.p0(i64 8, ptr %9) #7
  call void @llvm.lifetime.start.p0(i64 8, ptr %10) #7
  store ptr null, ptr %10, align 8, !tbaa !24
  call void @llvm.lifetime.start.p0(i64 8, ptr %11) #7
  call void @llvm.lifetime.start.p0(i64 4, ptr %12) #7
  store i32 0, ptr %12, align 4, !tbaa !25
  %15 = load ptr, ptr %8, align 8, !tbaa !38
  %16 = icmp eq ptr %15, null
  br i1 %16, label %23, label %17

17:                                               ; preds = %3
  %18 = load ptr, ptr %8, align 8, !tbaa !38
  %19 = getelementptr inbounds nuw %struct.ml_kem_gen_ctx_st, ptr %18, i32 0, i32 2
  %20 = load i32, ptr %19, align 8, !tbaa !44
  %21 = and i32 %20, 3
  %22 = icmp eq i32 %21, 2
  br i1 %22, label %23, label %24

23:                                               ; preds = %17, %3
  store ptr null, ptr %4, align 8
  store i32 1, ptr %13, align 4
  br label %75

24:                                               ; preds = %17
  %25 = load ptr, ptr %8, align 8, !tbaa !38
  %26 = getelementptr inbounds nuw %struct.ml_kem_gen_ctx_st, ptr %25, i32 0, i32 5
  %27 = load ptr, ptr %26, align 8, !tbaa !43
  store ptr %27, ptr %11, align 8, !tbaa !24
  %28 = load ptr, ptr %8, align 8, !tbaa !38
  %29 = getelementptr inbounds nuw %struct.ml_kem_gen_ctx_st, ptr %28, i32 0, i32 0
  %30 = load ptr, ptr %29, align 8, !tbaa !45
  %31 = load ptr, ptr %8, align 8, !tbaa !38
  %32 = getelementptr inbounds nuw %struct.ml_kem_gen_ctx_st, ptr %31, i32 0, i32 1
  %33 = load ptr, ptr %32, align 8, !tbaa !40
  %34 = load ptr, ptr %8, align 8, !tbaa !38
  %35 = getelementptr inbounds nuw %struct.ml_kem_gen_ctx_st, ptr %34, i32 0, i32 3
  %36 = load i32, ptr %35, align 4, !tbaa !46
  %37 = call ptr @ml_kem_new(ptr noundef %30, ptr noundef %33, i32 noundef %36)
  store ptr %37, ptr %9, align 8, !tbaa !9
  %38 = load ptr, ptr %9, align 8, !tbaa !9
  %39 = icmp eq ptr %38, null
  br i1 %39, label %40, label %41

40:                                               ; preds = %24
  store ptr null, ptr %4, align 8
  store i32 1, ptr %13, align 4
  br label %75

41:                                               ; preds = %24
  %42 = load ptr, ptr %8, align 8, !tbaa !38
  %43 = getelementptr inbounds nuw %struct.ml_kem_gen_ctx_st, ptr %42, i32 0, i32 2
  %44 = load i32, ptr %43, align 8, !tbaa !44
  %45 = and i32 %44, 3
  %46 = icmp eq i32 %45, 0
  br i1 %46, label %47, label %49

47:                                               ; preds = %41
  %48 = load ptr, ptr %9, align 8, !tbaa !9
  store ptr %48, ptr %4, align 8
  store i32 1, ptr %13, align 4
  br label %75

49:                                               ; preds = %41
  %50 = load ptr, ptr %11, align 8, !tbaa !24
  %51 = icmp ne ptr %50, null
  br i1 %51, label %52, label %58

52:                                               ; preds = %49
  %53 = load ptr, ptr %11, align 8, !tbaa !24
  %54 = load ptr, ptr %9, align 8, !tbaa !9
  %55 = call ptr @ossl_ml_kem_set_seed(ptr noundef %53, i64 noundef 64, ptr noundef %54)
  %56 = icmp ne ptr %55, null
  br i1 %56, label %58, label %57

57:                                               ; preds = %52
  store ptr null, ptr %4, align 8
  store i32 1, ptr %13, align 4
  br label %75

58:                                               ; preds = %52, %49
  %59 = load ptr, ptr %10, align 8, !tbaa !24
  %60 = load ptr, ptr %9, align 8, !tbaa !9
  %61 = call i32 @ossl_ml_kem_genkey(ptr noundef %59, i64 noundef 0, ptr noundef %60)
  store i32 %61, ptr %12, align 4, !tbaa !25
  %62 = load ptr, ptr %11, align 8, !tbaa !24
  %63 = icmp ne ptr %62, null
  br i1 %63, label %64, label %66

64:                                               ; preds = %58
  %65 = load ptr, ptr %11, align 8, !tbaa !24
  call void @OPENSSL_cleanse(ptr noundef %65, i64 noundef 64)
  br label %66

66:                                               ; preds = %64, %58
  %67 = load ptr, ptr %8, align 8, !tbaa !38
  %68 = getelementptr inbounds nuw %struct.ml_kem_gen_ctx_st, ptr %67, i32 0, i32 5
  store ptr null, ptr %68, align 8, !tbaa !43
  %69 = load i32, ptr %12, align 4, !tbaa !25
  %70 = icmp ne i32 %69, 0
  br i1 %70, label %71, label %73

71:                                               ; preds = %66
  %72 = load ptr, ptr %9, align 8, !tbaa !9
  store ptr %72, ptr %4, align 8
  store i32 1, ptr %13, align 4
  br label %75

73:                                               ; preds = %66
  %74 = load ptr, ptr %9, align 8, !tbaa !9
  call void @ossl_ml_kem_key_free(ptr noundef %74)
  store ptr null, ptr %4, align 8
  store i32 1, ptr %13, align 4
  br label %75

75:                                               ; preds = %73, %71, %57, %47, %40, %23
  call void @llvm.lifetime.end.p0(i64 4, ptr %12) #7
  call void @llvm.lifetime.end.p0(i64 8, ptr %11) #7
  call void @llvm.lifetime.end.p0(i64 8, ptr %10) #7
  call void @llvm.lifetime.end.p0(i64 8, ptr %9) #7
  call void @llvm.lifetime.end.p0(i64 8, ptr %8) #7
  %76 = load ptr, ptr %4, align 8
  ret ptr %76
}