; Function Attrs: nounwind uwtable
define internal ptr @ml_kem_gen(ptr noundef captures(address_is_null) %0, ptr readnone captures(none) %1, ptr readnone captures(none) %2) #0 {
  %4 = icmp eq ptr %0, null
  br i1 %4, label %ml_kem_new.exit.thread, label %5

5:                                                ; preds = %3
  %6 = getelementptr inbounds nuw i8, ptr %0, i64 16
  %7 = load i32, ptr %6, align 8, !tbaa !41
  %8 = and i32 %7, 3
  %9 = icmp eq i32 %8, 2
  br i1 %9, label %ml_kem_new.exit.thread, label %10

10:                                               ; preds = %5
  %11 = getelementptr inbounds nuw i8, ptr %0, i64 88
  %12 = load ptr, ptr %11, align 8, !tbaa !40
  %13 = load ptr, ptr %0, align 8, !tbaa !42
  %14 = getelementptr inbounds nuw i8, ptr %0, i64 8
  %15 = load ptr, ptr %14, align 8, !tbaa !37
  %16 = getelementptr inbounds nuw i8, ptr %0, i64 20
  %17 = load i32, ptr %16, align 4, !tbaa !43
  %18 = tail call i32 @ossl_prov_is_running() #7
  %.not.i = icmp eq i32 %18, 0
  br i1 %.not.i, label %ml_kem_new.exit.thread, label %19

19:                                               ; preds = %10
  %20 = tail call ptr @ossl_prov_ctx_get0_libctx(ptr noundef %13) #7
  %21 = tail call ptr @ossl_ml_kem_key_new(ptr noundef %20, ptr noundef %15, i32 noundef %17) #7
  %.not9.i = icmp eq ptr %21, null
  br i1 %.not9.i, label %ml_kem_new.exit.thread, label %22

22:                                               ; preds = %19
  %23 = tail call i32 @ossl_prov_ctx_get_bool_param(ptr noundef %13, ptr noundef nonnull @.str, i32 noundef 1) #7
  %24 = getelementptr inbounds nuw i8, ptr %21, i64 108
  store i32 %23, ptr %24, align 4, !tbaa !3
  %25 = tail call i32 @ossl_prov_ctx_get_bool_param(ptr noundef %13, ptr noundef nonnull @.str.1, i32 noundef 1) #7
  %26 = getelementptr inbounds nuw i8, ptr %21, i64 104
  store i32 %25, ptr %26, align 8, !tbaa !13
  %27 = load i32, ptr %6, align 8, !tbaa !41
  %28 = and i32 %27, 3
  %29 = icmp eq i32 %28, 0
  br i1 %29, label %ml_kem_new.exit.thread, label %30

30:                                               ; preds = %22
  %.not = icmp eq ptr %12, null
  br i1 %.not, label %.thread, label %32

.thread:                                          ; preds = %30
  %31 = tail call i32 @ossl_ml_kem_genkey(ptr noundef null, i64 noundef 0, ptr noundef nonnull %21) #7
  br label %36

32:                                               ; preds = %30
  %33 = tail call ptr @ossl_ml_kem_set_seed(ptr noundef nonnull %12, i64 noundef 64, ptr noundef nonnull %21) #7
  %.not24 = icmp eq ptr %33, null
  br i1 %.not24, label %ml_kem_new.exit.thread, label %34

34:                                               ; preds = %32
  %35 = tail call i32 @ossl_ml_kem_genkey(ptr noundef null, i64 noundef 0, ptr noundef nonnull %21) #7
  tail call void @OPENSSL_cleanse(ptr noundef nonnull %12, i64 noundef 64) #7
  br label %36

36:                                               ; preds = %.thread, %34
  %37 = phi i32 [ %31, %.thread ], [ %35, %34 ]
  store ptr null, ptr %11, align 8, !tbaa !40
  %.not25 = icmp eq i32 %37, 0
  br i1 %.not25, label %38, label %ml_kem_new.exit.thread

38:                                               ; preds = %36
  tail call void @ossl_ml_kem_key_free(ptr noundef nonnull %21) #7
  br label %ml_kem_new.exit.thread

ml_kem_new.exit.thread:                           ; preds = %19, %10, %36, %32, %22, %3, %5, %38
  %.0 = phi ptr [ null, %38 ], [ null, %5 ], [ null, %3 ], [ %21, %22 ], [ null, %32 ], [ %21, %36 ], [ null, %10 ], [ null, %19 ]
  ret ptr %.0
}